target datalayout = "e-m:e-p270:32:32-p271:32:32-p272:64:64-i64:64-i128:128-f80:128-n8:16:32:64-S128"
target triple = "x86_64-pc-linux-gnu"

%"struct.std::atomic.3" = type { %"struct.std::__atomic_base.4" }
%"struct.std::__atomic_base.4" = type { i64 }
%"class.std::chrono::duration" = type { i64 }
%"struct.folly::detail::EventBasePoller::Stats" = type { i32, i32, i64, i64, %"class.std::chrono::duration", %"class.std::chrono::duration", %"class.std::chrono::duration", %"class.std::chrono::duration", %"class.std::chrono::duration", %"class.std::chrono::duration" }
%"class.folly::detail::EventBasePoller" = type { ptr, %"struct.folly::Synchronized" }
%"struct.folly::Synchronized" = type <{ %"struct.folly::detail::EventBasePoller::Stats", %"class.folly::SharedMutexImpl", [4 x i8] }>
%"class.folly::SharedMutexImpl" = type { %"struct.std::atomic" }
%"struct.std::atomic" = type { %"struct.std::__atomic_base" }
%"struct.std::__atomic_base" = type { i32 }
%"class.folly::detail::(anonymous namespace)::EventBasePollerEpoll" = type { %"class.folly::detail::(anonymous namespace)::EventBasePollerImpl", i64, i32, %"class.std::vector.41" }
%"class.folly::detail::(anonymous namespace)::EventBasePollerImpl" = type { %"class.folly::detail::EventBasePoller", i8, %"class.std::vector", %"struct.std::atomic.3", %"struct.folly::detail::(anonymous namespace)::EventBasePollerImpl::Event", %"class.std::vector.19", %"class.std::unique_ptr.24", %"class.std::vector.32", %"struct.std::atomic.37", %"class.folly::detail::(anonymous namespace)::Queue" }
%"class.std::vector" = type { %"struct.std::_Vector_base" }
%"struct.std::_Vector_base" = type { %"struct.std::_Vector_base<folly::detail::(anonymous namespace)::EventBasePollerImpl::Event *, std::allocator<folly::detail::(anonymous namespace)::EventBasePollerImpl::Event *>>::_Vector_impl" }
%"struct.std::_Vector_base<folly::detail::(anonymous namespace)::EventBasePollerImpl::Event *, std::allocator<folly::detail::(anonymous namespace)::EventBasePollerImpl::Event *>>::_Vector_impl" = type { %"struct.std::_Vector_base<folly::detail::(anonymous namespace)::EventBasePollerImpl::Event *, std::allocator<folly::detail::(anonymous namespace)::EventBasePollerImpl::Event *>>::_Vector_impl_data" }
%"struct.std::_Vector_base<folly::detail::(anonymous namespace)::EventBasePollerImpl::Event *, std::allocator<folly::detail::(anonymous namespace)::EventBasePollerImpl::Event *>>::_Vector_impl_data" = type { ptr, ptr, ptr }
%"struct.folly::detail::(anonymous namespace)::EventBasePollerImpl::Event" = type { %"class.folly::detail::EventBasePoller::Handle", ptr, i32, i8, ptr, i8, %"class.folly::Baton" }
%"class.folly::detail::EventBasePoller::Handle" = type { ptr, ptr }
%"class.folly::Baton" = type { %"struct.std::atomic" }
%"class.std::vector.19" = type { %"struct.std::_Vector_base.20" }
%"struct.std::_Vector_base.20" = type { %"struct.std::_Vector_base<std::unique_ptr<folly::detail::(anonymous namespace)::EventBasePollerImpl::Event>, std::allocator<std::unique_ptr<folly::detail::(anonymous namespace)::EventBasePollerImpl::Event>>>::_Vector_impl" }
%"struct.std::_Vector_base<std::unique_ptr<folly::detail::(anonymous namespace)::EventBasePollerImpl::Event>, std::allocator<std::unique_ptr<folly::detail::(anonymous namespace)::EventBasePollerImpl::Event>>>::_Vector_impl" = type { %"struct.std::_Vector_base<std::unique_ptr<folly::detail::(anonymous namespace)::EventBasePollerImpl::Event>, std::allocator<std::unique_ptr<folly::detail::(anonymous namespace)::EventBasePollerImpl::Event>>>::_Vector_impl_data" }
%"struct.std::_Vector_base<std::unique_ptr<folly::detail::(anonymous namespace)::EventBasePollerImpl::Event>, std::allocator<std::unique_ptr<folly::detail::(anonymous namespace)::EventBasePollerImpl::Event>>>::_Vector_impl_data" = type { ptr, ptr, ptr }
%"class.std::unique_ptr.24" = type { %"struct.std::__uniq_ptr_data.25" }
%"struct.std::__uniq_ptr_data.25" = type { %"class.std::__uniq_ptr_impl.26" }
%"class.std::__uniq_ptr_impl.26" = type { %"class.std::tuple.27" }
%"class.std::tuple.27" = type { %"struct.std::_Tuple_impl.28" }
%"struct.std::_Tuple_impl.28" = type { %"struct.std::_Head_base.31" }
%"struct.std::_Head_base.31" = type { ptr }
%"class.std::vector.32" = type { %"struct.std::_Vector_base.33" }
%"struct.std::_Vector_base.33" = type { %"struct.std::_Vector_base<folly::detail::EventBasePoller::Handle *, std::allocator<folly::detail::EventBasePoller::Handle *>>::_Vector_impl" }
%"struct.std::_Vector_base<folly::detail::EventBasePoller::Handle *, std::allocator<folly::detail::EventBasePoller::Handle *>>::_Vector_impl" = type { %"struct.std::_Vector_base<folly::detail::EventBasePoller::Handle *, std::allocator<folly::detail::EventBasePoller::Handle *>>::_Vector_impl_data" }
%"struct.std::_Vector_base<folly::detail::EventBasePoller::Handle *, std::allocator<folly::detail::EventBasePoller::Handle *>>::_Vector_impl_data" = type { ptr, ptr, ptr }
%"struct.std::atomic.37" = type { %"struct.std::__atomic_base.38" }
%"struct.std::__atomic_base.38" = type { i8 }
%"class.folly::detail::(anonymous namespace)::Queue" = type { %"struct.std::atomic.39" }
%"struct.std::atomic.39" = type { %"struct.std::__atomic_base.40" }
%"struct.std::__atomic_base.40" = type { ptr }
%"class.std::vector.41" = type { %"struct.std::_Vector_base.42" }
%"struct.std::_Vector_base.42" = type { %"struct.std::_Vector_base<epoll_event, std::allocator<epoll_event>>::_Vector_impl" }
%"struct.std::_Vector_base<epoll_event, std::allocator<epoll_event>>::_Vector_impl" = type { %"struct.std::_Vector_base<epoll_event, std::allocator<epoll_event>>::_Vector_impl_data" }
%"struct.std::_Vector_base<epoll_event, std::allocator<epoll_event>>::_Vector_impl_data" = type { ptr, ptr, ptr }

; Function Attrs: mustprogress nounwind uwtable
define linkonce_odr noundef nonnull align 8 dereferenceable(8) ptr @_ZNSt10_Head_baseILm0EPSt6threadLb0EE7_M_headERKS2_(ptr noundef nonnull align 8 dereferenceable(8) %0) #0 comdat align 2 {
  %2 = alloca ptr, align 8
  store ptr %0, ptr %2, align 8, !tbaa !256
  %3 = load ptr, ptr %2, align 8, !tbaa !256
  %4 = getelementptr inbounds nuw %"struct.std::_Head_base.31", ptr %3, i32 0, i32 0
  ret ptr %4
}

; Function Attrs: mustprogress nounwind uwtable
define linkonce_odr noundef nonnull align 8 dereferenceable(8) ptr @_ZNSt11_Tuple_implILm0EJPSt6threadSt14default_deleteIS0_EEE7_M_headERKS4_(ptr noundef nonnull align 8 dereferenceable(8) %0) #0 comdat align 2 {
  %2 = alloca ptr, align 8
  store ptr %0, ptr %2, align 8, !tbaa !252
  %3 = load ptr, ptr %2, align 8, !tbaa !252
  %4 = call noundef nonnull align 8 dereferenceable(8) ptr @_ZNSt10_Head_baseILm0EPSt6threadLb0EE7_M_headERKS2_(ptr noundef nonnull align 8 dereferenceable(8) %3) #13
  ret ptr %4
}

; Function Attrs: mustprogress nounwind uwtable
define linkonce_odr noundef nonnull align 8 dereferenceable(8) ptr @_ZSt12__get_helperILm0EPSt6threadJSt14default_deleteIS0_EEERKT0_RKSt11_Tuple_implIXT_EJS4_DpT1_EE(ptr noundef nonnull align 8 dereferenceable(8) %0) #0 comdat {
  %2 = alloca ptr, align 8
  store ptr %0, ptr %2, align 8, !tbaa !252
  %3 = load ptr, ptr %2, align 8, !tbaa !252
  %4 = call noundef nonnull align 8 dereferenceable(8) ptr @_ZNSt11_Tuple_implILm0EJPSt6threadSt14default_deleteIS0_EEE7_M_headERKS4_(ptr noundef nonnull align 8 dereferenceable(8) %3) #13
  ret ptr %4
}

; Function Attrs: mustprogress nounwind uwtable
define linkonce_odr void @_ZNSt15__new_allocatorI11epoll_eventE10deallocateEPS0_m(ptr noundef nonnull align 1 dereferenceable(1) %0, ptr noundef %1, i64 noundef %2) #0 comdat align 2 {
  %4 = alloca ptr, align 8
  %5 = alloca ptr, align 8
  %6 = alloca i64, align 8
  store ptr %0, ptr %4, align 8, !tbaa !159
  store ptr %1, ptr %5, align 8, !tbaa !318
  store i64 %2, ptr %6, align 8, !tbaa !28
  %7 = load ptr, ptr %5, align 8, !tbaa !318
  %8 = load i64, ptr %6, align 8, !tbaa !28
  %9 = mul i64 %8, 12
  call void @_ZdlPvm(ptr noundef %7, i64 noundef %9) #30
  ret void
}

; Function Attrs: mustprogress nounwind uwtable
define linkonce_odr noundef nonnull align 8 dereferenceable(8) ptr @_ZSt3getILm0EJPSt6threadSt14default_deleteIS0_EEERKNSt13tuple_elementIXT_ESt5tupleIJDpT0_EEE4typeERKS8_(ptr noundef nonnull align 8 dereferenceable(8) %0) #0 comdat {
  %2 = alloca ptr, align 8
  store ptr %0, ptr %2, align 8, !tbaa !250
  %3 = load ptr, ptr %2, align 8, !tbaa !250
  %4 = call noundef nonnull align 8 dereferenceable(8) ptr @_ZSt12__get_helperILm0EPSt6threadJSt14default_deleteIS0_EEERKT0_RKSt11_Tuple_implIXT_EJS4_DpT1_EE(ptr noundef nonnull align 8 dereferenceable(8) %3) #13
  ret ptr %4
}

; Function Attrs: mustprogress nounwind uwtable
define linkonce_odr noundef i32 @_ZStanSt12memory_orderSt23__memory_order_modifier(i32 noundef %0, i32 noundef %1) #0 comdat {
  %3 = alloca i32, align 4
  %4 = alloca i32, align 4
  store i32 %0, ptr %3, align 4, !tbaa !74
  store i32 %1, ptr %4, align 4, !tbaa !80
  %5 = load i32, ptr %3, align 4, !tbaa !74
  %6 = load i32, ptr %4, align 4, !tbaa !80
  %7 = and i32 %5, %6
  ret i32 %7
}

; Function Attrs: mustprogress uwtable
define linkonce_odr void @_ZNSt16allocator_traitsISaI11epoll_eventEE10deallocateERS1_PS0_m(ptr noundef nonnull align 1 dereferenceable(1) %0, ptr noundef %1, i64 noundef %2) #4 comdat align 2 {
  %4 = alloca ptr, align 8
  %5 = alloca ptr, align 8
  %6 = alloca i64, align 8
  store ptr %0, ptr %4, align 8, !tbaa !155
  store ptr %1, ptr %5, align 8, !tbaa !318
  store i64 %2, ptr %6, align 8, !tbaa !28
  %7 = load ptr, ptr %4, align 8, !tbaa !155
  %8 = load ptr, ptr %5, align 8, !tbaa !318
  %9 = load i64, ptr %6, align 8, !tbaa !28
  call void @_ZNSt15__new_allocatorI11epoll_eventE10deallocateEPS0_m(ptr noundef nonnull align 1 dereferenceable(1) %7, ptr noundef %8, i64 noundef %9)
  ret void
}

; Function Attrs: mustprogress nounwind uwtable
define linkonce_odr void @_ZNSt12_Destroy_auxILb1EE9__destroyIP11epoll_eventEEvT_S4_(ptr noundef %0, ptr noundef %1) #0 comdat align 2 {
  %3 = alloca ptr, align 8
  %4 = alloca ptr, align 8
  store ptr %0, ptr %3, align 8, !tbaa !318
  store ptr %1, ptr %4, align 8, !tbaa !318
  ret void
}

; Function Attrs: mustprogress nounwind uwtable
define linkonce_odr noundef ptr @_ZNKSt15__uniq_ptr_implISt6threadSt14default_deleteIS0_EE6_M_ptrEv(ptr noundef nonnull align 8 dereferenceable(8) %0) #0 comdat align 2 {
  %2 = alloca ptr, align 8
  store ptr %0, ptr %2, align 8, !tbaa !248
  %3 = load ptr, ptr %2, align 8
  %4 = getelementptr inbounds nuw %"class.std::__uniq_ptr_impl.26", ptr %3, i32 0, i32 0
  %5 = call noundef nonnull align 8 dereferenceable(8) ptr @_ZSt3getILm0EJPSt6threadSt14default_deleteIS0_EEERKNSt13tuple_elementIXT_ESt5tupleIJDpT0_EEE4typeERKS8_(ptr noundef nonnull align 8 dereferenceable(8) %4) #13
  %6 = load ptr, ptr %5, align 8, !tbaa !199
  ret ptr %6
}

; Function Attrs: alwaysinline mustprogress nounwind uwtable
define linkonce_odr void @_ZNSt13__atomic_baseIbE5storeEbSt12memory_order(ptr noundef nonnull align 1 dereferenceable(1) %0, i1 noundef zeroext %1, i32 noundef %2) #8 comdat align 2 {
  %4 = alloca ptr, align 8
  %5 = alloca i8, align 1
  %6 = alloca i32, align 4
  %7 = alloca i32, align 4
  %8 = alloca i8, align 1
  store ptr %0, ptr %4, align 8, !tbaa !272
  %9 = zext i1 %1 to i8
  store i8 %9, ptr %5, align 1, !tbaa !99
  store i32 %2, ptr %6, align 4, !tbaa !74
  %10 = load ptr, ptr %4, align 8
  call void @llvm.lifetime.start.p0(i64 4, ptr %7) #13
  %11 = load i32, ptr %6, align 4, !tbaa !74
  %12 = call noundef i32 @_ZStanSt12memory_orderSt23__memory_order_modifier(i32 noundef %11, i32 noundef 65535)
  store i32 %12, ptr %7, align 4, !tbaa !74
  br label %13

13:                                               ; preds = %3
  br label %14

14:                                               ; preds = %13
  br label %15

15:                                               ; preds = %14
  br label %16

16:                                               ; preds = %15
  br label %17

17:                                               ; preds = %16
  br label %18

18:                                               ; preds = %17
  br label %19

19:                                               ; preds = %18
  br label %20

20:                                               ; preds = %19
  br label %21

21:                                               ; preds = %20
  %22 = getelementptr inbounds nuw %"struct.std::__atomic_base.38", ptr %10, i32 0, i32 0
  %23 = load i32, ptr %6, align 4, !tbaa !74
  %24 = load i8, ptr %5, align 1, !tbaa !99, !range !101, !noundef !102
  %25 = trunc i8 %24 to i1
  %26 = zext i1 %25 to i8
  store i8 %26, ptr %8, align 1, !tbaa !99
  switch i32 %23, label %27 [
    i32 3, label %29
    i32 5, label %31
  ]

27:                                               ; preds = %21
  %28 = load i8, ptr %8, align 1
  store atomic i8 %28, ptr %22 monotonic, align 1
  br label %33

29:                                               ; preds = %21
  %30 = load i8, ptr %8, align 1
  store atomic i8 %30, ptr %22 release, align 1
  br label %33

31:                                               ; preds = %21
  %32 = load i8, ptr %8, align 1
  store atomic i8 %32, ptr %22 seq_cst, align 1
  br label %33

33:                                               ; preds = %31, %29, %27
  call void @llvm.lifetime.end.p0(i64 4, ptr %7) #13
  ret void
}

; Function Attrs: mustprogress nounwind uwtable
define linkonce_odr void @_ZNSt15__new_allocatorI11epoll_eventED2Ev(ptr noundef nonnull align 1 dereferenceable(1) %0) unnamed_addr #0 comdat align 2 {
  %2 = alloca ptr, align 8
  store ptr %0, ptr %2, align 8, !tbaa !159
  ret void
}

; Function Attrs: mustprogress uwtable
define linkonce_odr void @_ZNSt12_Vector_baseI11epoll_eventSaIS0_EE13_M_deallocateEPS0_m(ptr noundef nonnull align 8 dereferenceable(24) %0, ptr noundef %1, i64 noundef %2) #4 comdat align 2 {
  %4 = alloca ptr, align 8
  %5 = alloca ptr, align 8
  %6 = alloca i64, align 8
  store ptr %0, ptr %4, align 8, !tbaa !311
  store ptr %1, ptr %5, align 8, !tbaa !318
  store i64 %2, ptr %6, align 8, !tbaa !28
  %7 = load ptr, ptr %4, align 8
  %8 = load ptr, ptr %5, align 8, !tbaa !318
  %9 = icmp ne ptr %8, null
  br i1 %9, label %10, label %14

10:                                               ; preds = %3
  %11 = getelementptr inbounds nuw %"struct.std::_Vector_base.42", ptr %7, i32 0, i32 0
  %12 = load ptr, ptr %5, align 8, !tbaa !318
  %13 = load i64, ptr %6, align 8, !tbaa !28
  call void @_ZNSt16allocator_traitsISaI11epoll_eventEE10deallocateERS1_PS0_m(ptr noundef nonnull align 1 dereferenceable(1) %11, ptr noundef %12, i64 noundef %13)
  br label %14

14:                                               ; preds = %10, %3
  ret void
}

; Function Attrs: inlinehint mustprogress uwtable
define linkonce_odr void @_ZSt8_DestroyIP11epoll_eventEvT_S2_(ptr noundef %0, ptr noundef %1) #2 comdat {
  %3 = alloca ptr, align 8
  %4 = alloca ptr, align 8
  store ptr %0, ptr %3, align 8, !tbaa !318
  store ptr %1, ptr %4, align 8, !tbaa !318
  %5 = load ptr, ptr %3, align 8, !tbaa !318
  %6 = load ptr, ptr %4, align 8, !tbaa !318
  call void @_ZNSt12_Destroy_auxILb1EE9__destroyIP11epoll_eventEEvT_S4_(ptr noundef %5, ptr noundef %6)
  ret void
}

; Function Attrs: mustprogress nounwind uwtable
define linkonce_odr noundef ptr @_ZNKSt10unique_ptrISt6threadSt14default_deleteIS0_EE3getEv(ptr noundef nonnull align 8 dereferenceable(8) %0) #0 comdat align 2 {
  %2 = alloca ptr, align 8
  store ptr %0, ptr %2, align 8, !tbaa !183
  %3 = load ptr, ptr %2, align 8
  %4 = getelementptr inbounds nuw %"class.std::unique_ptr.24", ptr %3, i32 0, i32 0
  %5 = call noundef ptr @_ZNKSt15__uniq_ptr_implISt6threadSt14default_deleteIS0_EE6_M_ptrEv(ptr noundef nonnull align 8 dereferenceable(8) %4) #13
  ret ptr %5
}

; Function Attrs: mustprogress nounwind uwtable
define linkonce_odr noundef zeroext i1 @_ZNSt13__atomic_baseIbEaSEb(ptr noundef nonnull align 1 dereferenceable(1) %0, i1 noundef zeroext %1) #0 comdat align 2 {
  %3 = alloca ptr, align 8
  %4 = alloca i8, align 1
  store ptr %0, ptr %3, align 8, !tbaa !272
  %5 = zext i1 %1 to i8
  store i8 %5, ptr %4, align 1, !tbaa !99
  %6 = load ptr, ptr %3, align 8
  %7 = load i8, ptr %4, align 1, !tbaa !99, !range !101, !noundef !102
  %8 = trunc i8 %7 to i1
  call void @_ZNSt13__atomic_baseIbE5storeEbSt12memory_order(ptr noundef nonnull align 1 dereferenceable(1) %6, i1 noundef zeroext %8, i32 noundef 5) #13
  %9 = load i8, ptr %4, align 1, !tbaa !99, !range !101, !noundef !102
  %10 = trunc i8 %9 to i1
  ret i1 %10
}

; Function Attrs: mustprogress nounwind uwtable
define linkonce_odr void @_ZNSt12_Vector_baseI11epoll_eventSaIS0_EED2Ev(ptr noundef nonnull align 8 dereferenceable(24) %0) unnamed_addr #0 comdat align 2 personality ptr @__gxx_personality_v0 {
  %2 = alloca ptr, align 8
  store ptr %0, ptr %2, align 8, !tbaa !311
  %3 = load ptr, ptr %2, align 8
  %4 = getelementptr inbounds nuw %"struct.std::_Vector_base.42", ptr %3, i32 0, i32 0
  %5 = getelementptr inbounds nuw %"struct.std::_Vector_base<epoll_event, std::allocator<epoll_event>>::_Vector_impl_data", ptr %4, i32 0, i32 0
  %6 = load ptr, ptr %5, align 8, !tbaa !165
  %7 = getelementptr inbounds nuw %"struct.std::_Vector_base.42", ptr %3, i32 0, i32 0
  %8 = getelementptr inbounds nuw %"struct.std::_Vector_base<epoll_event, std::allocator<epoll_event>>::_Vector_impl_data", ptr %7, i32 0, i32 2
  %9 = load ptr, ptr %8, align 8, !tbaa !313
  %10 = getelementptr inbounds nuw %"struct.std::_Vector_base.42", ptr %3, i32 0, i32 0
  %11 = getelementptr inbounds nuw %"struct.std::_Vector_base<epoll_event, std::allocator<epoll_event>>::_Vector_impl_data", ptr %10, i32 0, i32 0
  %12 = load ptr, ptr %11, align 8, !tbaa !165
  %13 = ptrtoint ptr %9 to i64
  %14 = ptrtoint ptr %12 to i64
  %15 = sub i64 %13, %14
  %16 = sdiv exact i64 %15, 12
  invoke void @_ZNSt12_Vector_baseI11epoll_eventSaIS0_EE13_M_deallocateEPS0_m(ptr noundef nonnull align 8 dereferenceable(24) %3, ptr noundef %6, i64 noundef %16)
          to label %17 unwind label %19

17:                                               ; preds = %1
  %18 = getelementptr inbounds nuw %"struct.std::_Vector_base.42", ptr %3, i32 0, i32 0
  call void @_ZNSt15__new_allocatorI11epoll_eventED2Ev(ptr noundef nonnull align 8 dereferenceable(24) %18) #13
  ret void

19:                                               ; preds = %1
  %20 = landingpad { ptr, i32 }
          catch ptr null
  %21 = extractvalue { ptr, i32 } %20, 0
  call void @__clang_call_terminate(ptr %21) #28
  unreachable
}

; Function Attrs: inlinehint mustprogress uwtable
define linkonce_odr void @_ZSt8_DestroyIP11epoll_eventS0_EvT_S2_RSaIT0_E(ptr noundef %0, ptr noundef %1, ptr noundef nonnull align 1 dereferenceable(1) %2) #2 comdat {
  %4 = alloca ptr, align 8
  %5 = alloca ptr, align 8
  %6 = alloca ptr, align 8
  store ptr %0, ptr %4, align 8, !tbaa !318
  store ptr %1, ptr %5, align 8, !tbaa !318
  store ptr %2, ptr %6, align 8, !tbaa !155
  %7 = load ptr, ptr %4, align 8, !tbaa !318
  %8 = load ptr, ptr %5, align 8, !tbaa !318
  call void @_ZSt8_DestroyIP11epoll_eventEvT_S2_(ptr noundef %7, ptr noundef %8)
  ret void
}

; Function Attrs: mustprogress nounwind uwtable
define linkonce_odr noundef nonnull align 1 dereferenceable(1) ptr @_ZNSt12_Vector_baseI11epoll_eventSaIS0_EE19_M_get_Tp_allocatorEv(ptr noundef nonnull align 8 dereferenceable(24) %0) #0 comdat align 2 {
  %2 = alloca ptr, align 8
  store ptr %0, ptr %2, align 8, !tbaa !311
  %3 = load ptr, ptr %2, align 8
  %4 = getelementptr inbounds nuw %"struct.std::_Vector_base.42", ptr %3, i32 0, i32 0
  ret ptr %4
}

; Function Attrs: mustprogress nounwind uwtable
define linkonce_odr noundef ptr @_ZNKSt10unique_ptrISt6threadSt14default_deleteIS0_EEptEv(ptr noundef nonnull align 8 dereferenceable(8) %0) #0 comdat align 2 {
  %2 = alloca ptr, align 8
  store ptr %0, ptr %2, align 8, !tbaa !183
  %3 = load ptr, ptr %2, align 8
  %4 = call noundef ptr @_ZNKSt10unique_ptrISt6threadSt14default_deleteIS0_EE3getEv(ptr noundef nonnull align 8 dereferenceable(8) %3) #13
  ret ptr %4
}

; Function Attrs: mustprogress nounwind uwtable
define linkonce_odr noundef zeroext i1 @_ZNSt6atomicIbEaSEb(ptr noundef nonnull align 1 dereferenceable(1) %0, i1 noundef zeroext %1) #0 comdat align 2 {
  %3 = alloca ptr, align 8
  %4 = alloca i8, align 1
  store ptr %0, ptr %3, align 8, !tbaa !187
  %5 = zext i1 %1 to i8
  store i8 %5, ptr %4, align 1, !tbaa !99
  %6 = load ptr, ptr %3, align 8
  %7 = getelementptr inbounds nuw %"struct.std::atomic.37", ptr %6, i32 0, i32 0
  %8 = load i8, ptr %4, align 1, !tbaa !99, !range !101, !noundef !102
  %9 = trunc i8 %8 to i1
  %10 = call noundef zeroext i1 @_ZNSt13__atomic_baseIbEaSEb(ptr noundef nonnull align 1 dereferenceable(1) %7, i1 noundef zeroext %9) #13
  ret i1 %10
}

; Function Attrs: mustprogress nounwind uwtable
define linkonce_odr void @_ZNSt6vectorI11epoll_eventSaIS0_EED2Ev(ptr noundef nonnull align 8 dereferenceable(24) %0) unnamed_addr #0 comdat align 2 personality ptr @__gxx_personality_v0 {
  %2 = alloca ptr, align 8
  store ptr %0, ptr %2, align 8, !tbaa !157
  %3 = load ptr, ptr %2, align 8
  %4 = getelementptr inbounds nuw %"struct.std::_Vector_base.42", ptr %3, i32 0, i32 0
  %5 = getelementptr inbounds nuw %"struct.std::_Vector_base<epoll_event, std::allocator<epoll_event>>::_Vector_impl_data", ptr %4, i32 0, i32 0
  %6 = load ptr, ptr %5, align 8, !tbaa !165
  %7 = getelementptr inbounds nuw %"struct.std::_Vector_base.42", ptr %3, i32 0, i32 0
  %8 = getelementptr inbounds nuw %"struct.std::_Vector_base<epoll_event, std::allocator<epoll_event>>::_Vector_impl_data", ptr %7, i32 0, i32 1
  %9 = load ptr, ptr %8, align 8, !tbaa !166
  %10 = call noundef nonnull align 1 dereferenceable(1) ptr @_ZNSt12_Vector_baseI11epoll_eventSaIS0_EE19_M_get_Tp_allocatorEv(ptr noundef nonnull align 8 dereferenceable(24) %3) #13
  invoke void @_ZSt8_DestroyIP11epoll_eventS0_EvT_S2_RSaIT0_E(ptr noundef %6, ptr noundef %9, ptr noundef nonnull align 1 dereferenceable(1) %10)
          to label %11 unwind label %12

11:                                               ; preds = %1
  call void @_ZNSt12_Vector_baseI11epoll_eventSaIS0_EED2Ev(ptr noundef nonnull align 8 dereferenceable(24) %3) #13
  ret void

12:                                               ; preds = %1
  %13 = landingpad { ptr, i32 }
          catch ptr null
  %14 = extractvalue { ptr, i32 } %13, 0
  call void @__clang_call_terminate(ptr %14) #28
  unreachable
}

; Function Attrs: mustprogress uwtable
define internal void @_ZN5folly6detail12_GLOBAL__N_119EventBasePollerImpl8stopLoopEv(ptr noundef nonnull align 8 dereferenceable(248) %0) #4 align 2 {
  %2 = alloca ptr, align 8
  store ptr %0, ptr %2, align 8, !tbaa !151
  %3 = load ptr, ptr %2, align 8
  %4 = getelementptr inbounds nuw %"class.folly::detail::(anonymous namespace)::EventBasePollerImpl", ptr %3, i32 0, i32 8
  %5 = call noundef zeroext i1 @_ZNSt6atomicIbEaSEb(ptr noundef nonnull align 1 dereferenceable(1) %4, i1 noundef zeroext true) #13
  call void @_ZN5folly6detail12_GLOBAL__N_119EventBasePollerImpl10notifyEvfdEv(ptr noundef nonnull align 8 dereferenceable(248) %3)
  %6 = getelementptr inbounds nuw %"class.folly::detail::(anonymous namespace)::EventBasePollerImpl", ptr %3, i32 0, i32 6
  %7 = call noundef ptr @_ZNKSt10unique_ptrISt6threadSt14default_deleteIS0_EEptEv(ptr noundef nonnull align 8 dereferenceable(8) %6) #13
  call void @_ZNSt6thread4joinEv(ptr noundef nonnull align 8 dereferenceable(8) %7)
  ret void
}

; Function Attrs: mustprogress nounwind uwtable
define internal void @_ZN5folly6detail12_GLOBAL__N_120EventBasePollerEpollD2Ev(ptr noundef nonnull align 8 dereferenceable(288) %0) unnamed_addr #0 align 2 personality ptr @__gxx_personality_v0 {
  %2 = alloca ptr, align 8
  store ptr %0, ptr %2, align 8, !tbaa !95
  %3 = load ptr, ptr %2, align 8
  invoke void @_ZN5folly6detail12_GLOBAL__N_119EventBasePollerImpl8stopLoopEv(ptr noundef nonnull align 8 dereferenceable(248) %3)
          to label %4 unwind label %6

4:                                                ; preds = %1
  %5 = getelementptr inbounds nuw %"class.folly::detail::(anonymous namespace)::EventBasePollerEpoll", ptr %3, i32 0, i32 3
  call void @_ZNSt6vectorI11epoll_eventSaIS0_EED2Ev(ptr noundef nonnull align 8 dereferenceable(24) %5) #13
  call void @_ZN5folly6detail12_GLOBAL__N_119EventBasePollerImplD2Ev(ptr noundef nonnull align 8 dereferenceable(248) %3) #13
  ret void

6:                                                ; preds = %1
  %7 = landingpad { ptr, i32 }
          catch ptr null
  %8 = extractvalue { ptr, i32 } %7, 0
  call void @__clang_call_terminate(ptr %8) #28
  unreachable
}