; Function Attrs: mustprogress nounwind uwtable
define internal void @_ZN5folly6detail12_GLOBAL__N_120EventBasePollerEpollD2Ev(ptr noundef nonnull align 8 dereferenceable(288) %0) unnamed_addr #10 align 2 personality ptr @__gxx_personality_v0 {
  %2 = getelementptr inbounds nuw i8, ptr %0, i64 232
  store atomic i8 1, ptr %2 seq_cst, align 8
  %3 = getelementptr inbounds nuw i8, ptr %0, i64 152
  %.val.i = load i32, ptr %3, align 8, !tbaa !129
  invoke fastcc void @_ZN5folly6detail12_GLOBAL__N_119EventBasePollerImpl10notifyEvfdEv(i32 %.val.i)
          to label %.noexc unwind label %14

.noexc:                                           ; preds = %1
  %4 = getelementptr inbounds nuw i8, ptr %0, i64 200
  %5 = load ptr, ptr %4, align 8, !tbaa !123
  invoke void @_ZNSt6thread4joinEv(ptr noundef nonnull align 8 dereferenceable(8) %5)
          to label %_ZN5folly6detail12_GLOBAL__N_119EventBasePollerImpl8stopLoopEv.exit unwind label %14

_ZN5folly6detail12_GLOBAL__N_119EventBasePollerImpl8stopLoopEv.exit: ; preds = %.noexc
  %6 = getelementptr inbounds nuw i8, ptr %0, i64 264
  %7 = load ptr, ptr %6, align 8, !tbaa !106
  %.not.i.i.i = icmp eq ptr %7, null
  br i1 %.not.i.i.i, label %_ZNSt6vectorI11epoll_eventSaIS0_EED2Ev.exit, label %8

8:                                                ; preds = %_ZN5folly6detail12_GLOBAL__N_119EventBasePollerImpl8stopLoopEv.exit
  %9 = getelementptr inbounds nuw i8, ptr %0, i64 280
  %10 = load ptr, ptr %9, align 8, !tbaa !107
  %11 = ptrtoint ptr %10 to i64
  %12 = ptrtoint ptr %7 to i64
  %13 = sub i64 %11, %12
  tail call void @_ZdlPvm(ptr noundef nonnull %7, i64 noundef %13) #36
  br label %_ZNSt6vectorI11epoll_eventSaIS0_EED2Ev.exit

_ZNSt6vectorI11epoll_eventSaIS0_EED2Ev.exit:      ; preds = %_ZN5folly6detail12_GLOBAL__N_119EventBasePollerImpl8stopLoopEv.exit, %8
  tail call void @_ZN5folly6detail12_GLOBAL__N_119EventBasePollerImplD2Ev(ptr noundef nonnull align 8 dereferenceable(248) %0) #26
  ret void

14:                                               ; preds = %.noexc, %1
  %15 = landingpad { ptr, i32 }
          catch ptr null
  %16 = extractvalue { ptr, i32 } %15, 0
  tail call void @__clang_call_terminate(ptr %16) #34
  unreachable
}